target datalayout = "e-m:e-p270:32:32-p271:32:32-p272:64:64-i64:64-i128:128-f80:128-n8:16:32:64-S128"
target triple = "x86_64-pc-linux-gnu"

%struct.pathspec = type { i32, i8, i32, i32, ptr }
%struct.index_state = type { ptr, i32, i32, i32, i32, ptr, ptr, ptr, %struct.cache_time, i8, i32, %struct.hashmap, %struct.hashmap, %struct.object_id, ptr, ptr, ptr, ptr, ptr, ptr, ptr }
%struct.cache_time = type { i32, i32 }
%struct.hashmap = type { ptr, ptr, ptr, i32, i32, i32, i32, i8 }
%struct.object_id = type { [32 x i8], i32 }
%struct.cache_entry = type { %struct.hashmap_entry, %struct.stat_data, i32, i32, i32, i32, i32, %struct.object_id, [0 x i8] }
%struct.hashmap_entry = type { ptr, i32 }
%struct.stat_data = type { %struct.cache_time, %struct.cache_time, i32, i32, i32, i32, i32 }
%struct.repository = type { ptr, ptr, ptr, ptr, ptr, %struct.strmap, %struct.strmap, %struct.repo_path_cache, ptr, ptr, ptr, ptr, %struct.repo_settings, ptr, ptr, ptr, ptr, ptr, ptr, i32, i32, i32, ptr, ptr, i32, i32, i8 }
%struct.strmap = type { %struct.hashmap, ptr, i8 }
%struct.repo_path_cache = type { ptr, ptr, ptr, ptr, ptr, ptr, ptr }
%struct.repo_settings = type { i32, i32, i32, i32, i32, i32, i32, i32, i32, i32, i32, i32, ptr, i32, i32, i32, i32, i32, i32, i32, i64, i64, i64 }

@the_repository = external global ptr, align 8

; Function Attrs: inlinehint nounwind uwtable
define internal i32 @ce_path_match(ptr noundef %0, ptr noundef %1, ptr noundef %2, ptr noundef %3) #3 {
  %5 = alloca ptr, align 8
  %6 = alloca ptr, align 8
  %7 = alloca ptr, align 8
  %8 = alloca ptr, align 8
  store ptr %0, ptr %5, align 8, !tbaa !9
  store ptr %1, ptr %6, align 8, !tbaa !38
  store ptr %2, ptr %7, align 8, !tbaa !4
  store ptr %3, ptr %8, align 8, !tbaa !11
  %9 = load ptr, ptr %5, align 8, !tbaa !9
  %10 = load ptr, ptr %7, align 8, !tbaa !4
  %11 = load ptr, ptr %6, align 8, !tbaa !38
  %12 = getelementptr inbounds nuw %struct.cache_entry, ptr %11, i32 0, i32 8
  %13 = getelementptr inbounds [0 x i8], ptr %12, i64 0, i64 0
  %14 = load ptr, ptr %6, align 8, !tbaa !38
  %15 = getelementptr inbounds nuw %struct.cache_entry, ptr %14, i32 0, i32 5
  %16 = load i32, ptr %15, align 8, !tbaa !13
  %17 = load ptr, ptr %8, align 8, !tbaa !11
  %18 = load ptr, ptr %6, align 8, !tbaa !38
  %19 = getelementptr inbounds nuw %struct.cache_entry, ptr %18, i32 0, i32 2
  %20 = load i32, ptr %19, align 4, !tbaa !13
  %21 = and i32 %20, 61440
  %22 = icmp eq i32 %21, 16384
  br i1 %22, label %29, label %23

23:                                               ; preds = %4
  %24 = load ptr, ptr %6, align 8, !tbaa !38
  %25 = getelementptr inbounds nuw %struct.cache_entry, ptr %24, i32 0, i32 2
  %26 = load i32, ptr %25, align 4, !tbaa !13
  %27 = and i32 %26, 61440
  %28 = icmp eq i32 %27, 57344
  br label %29

29:                                               ; preds = %23, %4
  %30 = phi i1 [ true, %4 ], [ %28, %23 ]
  %31 = zext i1 %30 to i32
  %32 = call i32 @match_pathspec(ptr noundef %9, ptr noundef %10, ptr noundef %13, i32 noundef %16, i32 noundef 0, ptr noundef %17, i32 noundef %31)
  ret i32 %32
}

; Function Attrs: nounwind uwtable
define dso_local ptr @find_pathspecs_matching_skip_worktree(ptr noundef %0) #0 {
  %2 = alloca ptr, align 8
  %3 = alloca ptr, align 8
  %4 = alloca ptr, align 8
  %5 = alloca i32, align 4
  %6 = alloca ptr, align 8
  store ptr %0, ptr %2, align 8, !tbaa !4
  call void @llvm.lifetime.start.p0(i64 8, ptr %3) #10
  %7 = load ptr, ptr @the_repository, align 8, !tbaa !41
  %8 = getelementptr inbounds nuw %struct.repository, ptr %7, i32 0, i32 15
  %9 = load ptr, ptr %8, align 8, !tbaa !42
  store ptr %9, ptr %3, align 8, !tbaa !9
  call void @llvm.lifetime.start.p0(i64 8, ptr %4) #10
  %10 = load ptr, ptr %2, align 8, !tbaa !4
  %11 = getelementptr inbounds nuw %struct.pathspec, ptr %10, i32 0, i32 0
  %12 = load i32, ptr %11, align 8, !tbaa !15
  %13 = sext i32 %12 to i64
  %14 = call ptr @xcalloc(i64 noundef %13, i64 noundef 1)
  store ptr %14, ptr %4, align 8, !tbaa !11
  call void @llvm.lifetime.start.p0(i64 4, ptr %5) #10
  store i32 0, ptr %5, align 4, !tbaa !13
  br label %15

15:                                               ; preds = %48, %1
  %16 = load i32, ptr %5, align 4, !tbaa !13
  %17 = load ptr, ptr %3, align 8, !tbaa !9
  %18 = getelementptr inbounds nuw %struct.index_state, ptr %17, i32 0, i32 2
  %19 = load i32, ptr %18, align 4, !tbaa !21
  %20 = icmp ult i32 %16, %19
  br i1 %20, label %21, label %51

21:                                               ; preds = %15
  call void @llvm.lifetime.start.p0(i64 8, ptr %6) #10
  %22 = load ptr, ptr %3, align 8, !tbaa !9
  %23 = getelementptr inbounds nuw %struct.index_state, ptr %22, i32 0, i32 0
  %24 = load ptr, ptr %23, align 8, !tbaa !37
  %25 = load i32, ptr %5, align 4, !tbaa !13
  %26 = sext i32 %25 to i64
  %27 = getelementptr inbounds ptr, ptr %24, i64 %26
  %28 = load ptr, ptr %27, align 8, !tbaa !38
  store ptr %28, ptr %6, align 8, !tbaa !38
  %29 = load ptr, ptr %6, align 8, !tbaa !38
  %30 = getelementptr inbounds nuw %struct.cache_entry, ptr %29, i32 0, i32 3
  %31 = load i32, ptr %30, align 8, !tbaa !13
  %32 = and i32 %31, 1073741824
  %33 = icmp ne i32 %32, 0
  br i1 %33, label %41, label %34

34:                                               ; preds = %21
  %35 = load ptr, ptr %6, align 8, !tbaa !38
  %36 = getelementptr inbounds nuw %struct.cache_entry, ptr %35, i32 0, i32 8
  %37 = getelementptr inbounds [0 x i8], ptr %36, i64 0, i64 0
  %38 = load ptr, ptr %3, align 8, !tbaa !9
  %39 = call i32 @path_in_sparse_checkout(ptr noundef %37, ptr noundef %38)
  %40 = icmp ne i32 %39, 0
  br i1 %40, label %47, label %41

41:                                               ; preds = %34, %21
  %42 = load ptr, ptr %3, align 8, !tbaa !9
  %43 = load ptr, ptr %6, align 8, !tbaa !38
  %44 = load ptr, ptr %2, align 8, !tbaa !4
  %45 = load ptr, ptr %4, align 8, !tbaa !11
  %46 = call i32 @ce_path_match(ptr noundef %42, ptr noundef %43, ptr noundef %44, ptr noundef %45)
  br label %47

47:                                               ; preds = %41, %34
  call void @llvm.lifetime.end.p0(i64 8, ptr %6) #10
  br label %48

48:                                               ; preds = %47
  %49 = load i32, ptr %5, align 4, !tbaa !13
  %50 = add nsw i32 %49, 1
  store i32 %50, ptr %5, align 4, !tbaa !13
  br label %15, !llvm.loop !57

51:                                               ; preds = %15
  %52 = load ptr, ptr %4, align 8, !tbaa !11
  call void @llvm.lifetime.end.p0(i64 4, ptr %5) #10
  call void @llvm.lifetime.end.p0(i64 8, ptr %4) #10
  call void @llvm.lifetime.end.p0(i64 8, ptr %3) #10
  ret ptr %52
}