; Function Attrs: nounwind uwtable
define dso_local ptr @find_pathspecs_matching_skip_worktree(ptr noundef %0) local_unnamed_addr #0 {
  %2 = load ptr, ptr @the_repository, align 8, !tbaa !36
  %3 = getelementptr inbounds nuw i8, ptr %2, i64 384
  %4 = load ptr, ptr %3, align 8, !tbaa !37
  %5 = load i32, ptr %0, align 8, !tbaa !4
  %6 = sext i32 %5 to i64
  %7 = tail call ptr @xcalloc(i64 noundef %6, i64 noundef 1) #17
  %8 = getelementptr inbounds nuw i8, ptr %4, i64 12
  %9 = load i32, ptr %8, align 4, !tbaa !14
  %.not15 = icmp eq i32 %9, 0
  br i1 %.not15, label %._crit_edge, label %.lr.ph

.lr.ph:                                           ; preds = %1, %30
  %indvars.iv = phi i64 [ %indvars.iv.next, %30 ], [ 0, %1 ]
  %10 = load ptr, ptr %4, align 8, !tbaa !31
  %11 = getelementptr inbounds nuw ptr, ptr %10, i64 %indvars.iv
  %12 = load ptr, ptr %11, align 8, !tbaa !32
  %13 = getelementptr inbounds nuw i8, ptr %12, i64 56
  %14 = load i32, ptr %13, align 8, !tbaa !34
  %15 = and i32 %14, 1073741824
  %.not = icmp eq i32 %15, 0
  br i1 %.not, label %16, label %19

16:                                               ; preds = %.lr.ph
  %17 = getelementptr inbounds nuw i8, ptr %12, i64 108
  %18 = tail call i32 @path_in_sparse_checkout(ptr noundef nonnull %17, ptr noundef nonnull %4) #17
  %.not13 = icmp eq i32 %18, 0
  br i1 %.not13, label %19, label %30

19:                                               ; preds = %16, %.lr.ph
  %20 = getelementptr inbounds nuw i8, ptr %12, i64 64
  %21 = load i32, ptr %20, align 8, !tbaa !34
  %22 = getelementptr inbounds nuw i8, ptr %12, i64 52
  %23 = load i32, ptr %22, align 4, !tbaa !34
  %24 = and i32 %23, 61440
  %25 = icmp eq i32 %24, 16384
  %26 = icmp eq i32 %24, 57344
  %narrow.i = or i1 %25, %26
  %27 = zext i1 %narrow.i to i32
  %28 = getelementptr inbounds nuw i8, ptr %12, i64 108
  %29 = tail call i32 @match_pathspec(ptr noundef nonnull %4, ptr noundef nonnull %0, ptr noundef nonnull %28, i32 noundef %21, i32 noundef 0, ptr noundef %7, i32 noundef %27) #17
  br label %30

30:                                               ; preds = %19, %16
  %indvars.iv.next = add nuw nsw i64 %indvars.iv, 1
  %31 = load i32, ptr %8, align 4, !tbaa !14
  %32 = zext i32 %31 to i64
  %33 = icmp samesign ult i64 %indvars.iv.next, %32
  br i1 %33, label %.lr.ph, label %._crit_edge, !llvm.loop !53

._crit_edge:                                      ; preds = %30, %1
  ret ptr %7
}